; Function Attrs: mustprogress uwtable
define noundef zeroext i1 @_ZNK8QuantLib22WriterExtensibleOption9isExpiredEv(ptr nocapture noundef nonnull readonly align 8 dereferenceable(256) %this) unnamed_addr #9 align 2 personality ptr @__gxx_personality_v0 {
entry:
  %ref.tmp = alloca %"class.QuantLib::detail::simple_event", align 8
  %ref.tmp4 = alloca %"class.QuantLib::Date", align 8
  call void @llvm.lifetime.start.p0(i64 72, ptr nonnull %ref.tmp) #25
  %exercise2_ = getelementptr inbounds nuw i8, ptr %this, i64 240
  %0 = load ptr, ptr %exercise2_, align 8, !tbaa !44
  %cmp.not.i = icmp eq ptr %0, null
  br i1 %cmp.not.i, label %cond.false.i, label %_ZNK5boost10shared_ptrIN8QuantLib8ExerciseEEptEv.exit, !prof !52

cond.false.i:                                     ; preds = %entry
  tail call void @_ZN5boost16assertion_failedEPKcS1_S1_l(ptr noundef nonnull @.str.14, ptr noundef nonnull @__PRETTY_FUNCTION__._ZNK5boost10shared_ptrIN8QuantLib8ExerciseEEptEv, ptr noundef nonnull @.str.15, i64 noundef 784)
  %.pre.i = load ptr, ptr %exercise2_, align 8, !tbaa !44
  br label %_ZNK5boost10shared_ptrIN8QuantLib8ExerciseEEptEv.exit

_ZNK5boost10shared_ptrIN8QuantLib8ExerciseEEptEv.exit: ; preds = %entry, %cond.false.i
  %1 = phi ptr [ %0, %entry ], [ %.pre.i, %cond.false.i ]
  %call3 = tail call i64 @_ZNK8QuantLib8Exercise8lastDateEv(ptr noundef nonnull align 8 dereferenceable(36) %1)
  %2 = getelementptr inbounds i8, ptr %ref.tmp, i64 16
  %3 = getelementptr inbounds i8, ptr %ref.tmp, i64 32
  store i32 0, ptr %3, align 8, !tbaa !8
  %_M_parent.i.i.i.i.i.i.i = getelementptr inbounds i8, ptr %ref.tmp, i64 40
  store ptr null, ptr %_M_parent.i.i.i.i.i.i.i, align 8, !tbaa !13
  %_M_left.i.i.i.i.i.i.i = getelementptr inbounds i8, ptr %ref.tmp, i64 48
  store ptr %3, ptr %_M_left.i.i.i.i.i.i.i, align 8, !tbaa !14
  %_M_right.i.i.i.i.i.i.i = getelementptr inbounds i8, ptr %ref.tmp, i64 56
  store ptr %3, ptr %_M_right.i.i.i.i.i.i.i, align 8, !tbaa !15
  %_M_node_count.i.i.i.i.i.i.i = getelementptr inbounds i8, ptr %ref.tmp, i64 64
  store i64 0, ptr %_M_node_count.i.i.i.i.i.i.i, align 8, !tbaa !16
  store ptr getelementptr inbounds inrange(-24, 40) (i8, ptr @_ZTVN8QuantLib6detail12simple_eventE, i64 24), ptr %ref.tmp, align 8, !tbaa !33
  store ptr getelementptr inbounds inrange(-24, 16) (i8, ptr @_ZTVN8QuantLib6detail12simple_eventE, i64 88), ptr %2, align 8, !tbaa !33
  %date_.i = getelementptr inbounds nuw i8, ptr %ref.tmp, i64 8
  store i64 %call3, ptr %date_.i, align 8, !tbaa !47
  call void @llvm.lifetime.start.p0(i64 8, ptr nonnull %ref.tmp4) #25
  invoke void @_ZN8QuantLib4DateC1Ev(ptr noundef nonnull align 8 dereferenceable(8) %ref.tmp4)
          to label %invoke.cont unwind label %lpad

invoke.cont:                                      ; preds = %_ZNK5boost10shared_ptrIN8QuantLib8ExerciseEEptEv.exit
  %call8 = invoke noundef zeroext i1 @_ZNK8QuantLib5Event11hasOccurredERKNS_4DateEN5boost8optionalIbEE(ptr noundef nonnull align 8 dereferenceable(8) %ref.tmp, ptr noundef nonnull align 8 dereferenceable(8) %ref.tmp4, i16 0)
          to label %invoke.cont7 unwind label %lpad

invoke.cont7:                                     ; preds = %invoke.cont
  call void @llvm.lifetime.end.p0(i64 8, ptr nonnull %ref.tmp4) #25
  store ptr getelementptr inbounds inrange(-16, 16) (i8, ptr @_ZTVN8QuantLib10ObservableE, i64 16), ptr %2, align 8, !tbaa !33
  %observers_.i.i = getelementptr inbounds i8, ptr %ref.tmp, i64 24
  %4 = load ptr, ptr %_M_parent.i.i.i.i.i.i.i, align 8, !tbaa !13
  invoke void @_ZNSt8_Rb_treeIPN8QuantLib8ObserverES2_St9_IdentityIS2_ESt4lessIS2_ESaIS2_EE8_M_eraseEPSt13_Rb_tree_nodeIS2_E(ptr noundef nonnull align 8 dereferenceable(48) %observers_.i.i, ptr noundef %4)
          to label %_ZN8QuantLib6detail12simple_eventD1Ev.exit unwind label %terminate.lpad.i.i.i.i

terminate.lpad.i.i.i.i:                           ; preds = %invoke.cont7
  %5 = landingpad { ptr, i32 }
          catch ptr null
  %6 = extractvalue { ptr, i32 } %5, 0
  call void @__clang_call_terminate(ptr %6) #26
  unreachable

_ZN8QuantLib6detail12simple_eventD1Ev.exit:       ; preds = %invoke.cont7
  call void @llvm.lifetime.end.p0(i64 72, ptr nonnull %ref.tmp) #25
  ret i1 %call8

lpad:                                             ; preds = %invoke.cont, %_ZNK5boost10shared_ptrIN8QuantLib8ExerciseEEptEv.exit
  %7 = landingpad { ptr, i32 }
          cleanup
  call void @llvm.lifetime.end.p0(i64 8, ptr nonnull %ref.tmp4) #25
  call void @_ZN8QuantLib6detail12simple_eventD1Ev(ptr noundef nonnull align 8 dereferenceable(16) %ref.tmp) #25
  call void @llvm.lifetime.end.p0(i64 72, ptr nonnull %ref.tmp) #25
  resume { ptr, i32 } %7
}